target datalayout = "e-m:e-p270:32:32-p271:32:32-p272:64:64-i64:64-i128:128-f80:128-n8:16:32:64-S128"
target triple = "x86_64-pc-linux-gnu"

%"class.zxing::qrcode::FinderPatternFinder" = type { i32, i32, i32, %"class.std::vector.0", %"class.zxing::Ref", %"class.std::vector.5", i8, %"class.zxing::Ref.10" }
%"class.std::vector.0" = type { %"struct.std::_Vector_base.1" }
%"struct.std::_Vector_base.1" = type { %"struct.std::_Vector_base<std::vector<zxing::qrcode::FinderPatternFinder::HorizontalCheckedResult>, std::allocator<std::vector<zxing::qrcode::FinderPatternFinder::HorizontalCheckedResult>>>::_Vector_impl" }
%"struct.std::_Vector_base<std::vector<zxing::qrcode::FinderPatternFinder::HorizontalCheckedResult>, std::allocator<std::vector<zxing::qrcode::FinderPatternFinder::HorizontalCheckedResult>>>::_Vector_impl" = type { %"struct.std::_Vector_base<std::vector<zxing::qrcode::FinderPatternFinder::HorizontalCheckedResult>, std::allocator<std::vector<zxing::qrcode::FinderPatternFinder::HorizontalCheckedResult>>>::_Vector_impl_data" }
%"struct.std::_Vector_base<std::vector<zxing::qrcode::FinderPatternFinder::HorizontalCheckedResult>, std::allocator<std::vector<zxing::qrcode::FinderPatternFinder::HorizontalCheckedResult>>>::_Vector_impl_data" = type { ptr, ptr, ptr }
%"class.zxing::Ref" = type { ptr }
%"class.std::vector.5" = type { %"struct.std::_Vector_base.6" }
%"struct.std::_Vector_base.6" = type { %"struct.std::_Vector_base<zxing::Ref<zxing::qrcode::FinderPattern>, std::allocator<zxing::Ref<zxing::qrcode::FinderPattern>>>::_Vector_impl" }
%"struct.std::_Vector_base<zxing::Ref<zxing::qrcode::FinderPattern>, std::allocator<zxing::Ref<zxing::qrcode::FinderPattern>>>::_Vector_impl" = type { %"struct.std::_Vector_base<zxing::Ref<zxing::qrcode::FinderPattern>, std::allocator<zxing::Ref<zxing::qrcode::FinderPattern>>>::_Vector_impl_data" }
%"struct.std::_Vector_base<zxing::Ref<zxing::qrcode::FinderPattern>, std::allocator<zxing::Ref<zxing::qrcode::FinderPattern>>>::_Vector_impl_data" = type { ptr, ptr, ptr }
%"class.zxing::Ref.10" = type { ptr }
%"class.std::vector.52" = type { %"struct.std::_Vector_base.53" }
%"struct.std::_Vector_base.53" = type { %"struct.std::_Vector_base<zxing::qrcode::FinderPatternFinder::HorizontalCheckedResult, std::allocator<zxing::qrcode::FinderPatternFinder::HorizontalCheckedResult>>::_Vector_impl" }
%"struct.std::_Vector_base<zxing::qrcode::FinderPatternFinder::HorizontalCheckedResult, std::allocator<zxing::qrcode::FinderPatternFinder::HorizontalCheckedResult>>::_Vector_impl" = type { %"struct.std::_Vector_base<zxing::qrcode::FinderPatternFinder::HorizontalCheckedResult, std::allocator<zxing::qrcode::FinderPatternFinder::HorizontalCheckedResult>>::_Vector_impl_data" }
%"struct.std::_Vector_base<zxing::qrcode::FinderPatternFinder::HorizontalCheckedResult, std::allocator<zxing::qrcode::FinderPatternFinder::HorizontalCheckedResult>>::_Vector_impl_data" = type { ptr, ptr, ptr }
%"struct.zxing::qrcode::FinderPatternFinder::HorizontalCheckedResult" = type { i64, float }

; Function Attrs: mustprogress nounwind uwtable
define linkonce_odr hidden noundef nonnull align 8 dereferenceable(16) ptr @_ZNSt6vectorIN5zxing6qrcode19FinderPatternFinder23HorizontalCheckedResultESaIS3_EEixEm(ptr noundef nonnull align 8 dereferenceable(24) %0, i64 noundef %1) #1 comdat align 2 {
  %3 = alloca ptr, align 8
  %4 = alloca i64, align 8
  store ptr %0, ptr %3, align 8
  store i64 %1, ptr %4, align 8
  %5 = load ptr, ptr %3, align 8
  %6 = getelementptr inbounds %"struct.std::_Vector_base.53", ptr %5, i32 0, i32 0
  %7 = getelementptr inbounds %"struct.std::_Vector_base<zxing::qrcode::FinderPatternFinder::HorizontalCheckedResult, std::allocator<zxing::qrcode::FinderPatternFinder::HorizontalCheckedResult>>::_Vector_impl_data", ptr %6, i32 0, i32 0
  %8 = load ptr, ptr %7, align 8
  %9 = load i64, ptr %4, align 8
  %10 = getelementptr inbounds %"struct.zxing::qrcode::FinderPatternFinder::HorizontalCheckedResult", ptr %8, i64 %9
  ret ptr %10
}

; Function Attrs: mustprogress nounwind uwtable
define linkonce_odr hidden noundef i64 @_ZNKSt6vectorIN5zxing6qrcode19FinderPatternFinder23HorizontalCheckedResultESaIS3_EE4sizeEv(ptr noundef nonnull align 8 dereferenceable(24) %0) #1 comdat align 2 {
  %2 = alloca ptr, align 8
  store ptr %0, ptr %2, align 8
  %3 = load ptr, ptr %2, align 8
  %4 = getelementptr inbounds %"struct.std::_Vector_base.53", ptr %3, i32 0, i32 0
  %5 = getelementptr inbounds %"struct.std::_Vector_base<zxing::qrcode::FinderPatternFinder::HorizontalCheckedResult, std::allocator<zxing::qrcode::FinderPatternFinder::HorizontalCheckedResult>>::_Vector_impl_data", ptr %4, i32 0, i32 1
  %6 = load ptr, ptr %5, align 8
  %7 = getelementptr inbounds %"struct.std::_Vector_base.53", ptr %3, i32 0, i32 0
  %8 = getelementptr inbounds %"struct.std::_Vector_base<zxing::qrcode::FinderPatternFinder::HorizontalCheckedResult, std::allocator<zxing::qrcode::FinderPatternFinder::HorizontalCheckedResult>>::_Vector_impl_data", ptr %7, i32 0, i32 0
  %9 = load ptr, ptr %8, align 8
  %10 = ptrtoint ptr %6 to i64
  %11 = ptrtoint ptr %9 to i64
  %12 = sub i64 %10, %11
  %13 = sdiv exact i64 %12, 16
  ret i64 %13
}

; Function Attrs: mustprogress nounwind uwtable
define linkonce_odr hidden noundef nonnull align 8 dereferenceable(24) ptr @_ZNSt6vectorIS_IN5zxing6qrcode19FinderPatternFinder23HorizontalCheckedResultESaIS3_EESaIS5_EEixEm(ptr noundef nonnull align 8 dereferenceable(24) %0, i64 noundef %1) #1 comdat align 2 {
  %3 = alloca ptr, align 8
  %4 = alloca i64, align 8
  store ptr %0, ptr %3, align 8
  store i64 %1, ptr %4, align 8
  %5 = load ptr, ptr %3, align 8
  %6 = getelementptr inbounds %"struct.std::_Vector_base.1", ptr %5, i32 0, i32 0
  %7 = getelementptr inbounds %"struct.std::_Vector_base<std::vector<zxing::qrcode::FinderPatternFinder::HorizontalCheckedResult>, std::allocator<std::vector<zxing::qrcode::FinderPatternFinder::HorizontalCheckedResult>>>::_Vector_impl_data", ptr %6, i32 0, i32 0
  %8 = load ptr, ptr %7, align 8
  %9 = load i64, ptr %4, align 8
  %10 = getelementptr inbounds %"class.std::vector.52", ptr %8, i64 %9
  ret ptr %10
}

; Function Attrs: mustprogress nounwind uwtable
define hidden noundef float @_ZN5zxing6qrcode19FinderPatternFinder26hasHorizontalCheckedResultEmm(ptr noundef nonnull align 8 dereferenceable(88) %0, i64 noundef %1, i64 noundef %2) #1 align 2 {
  %4 = alloca float, align 4
  %5 = alloca ptr, align 8
  %6 = alloca i64, align 8
  %7 = alloca i64, align 8
  %8 = alloca i64, align 8
  store ptr %0, ptr %5, align 8
  store i64 %1, ptr %6, align 8
  store i64 %2, ptr %7, align 8
  %9 = load ptr, ptr %5, align 8
  store i64 0, ptr %8, align 8
  br label %10

10:                                               ; preds = %36, %3
  %11 = load i64, ptr %8, align 8
  %12 = getelementptr inbounds %"class.zxing::qrcode::FinderPatternFinder", ptr %9, i32 0, i32 3
  %13 = load i64, ptr %6, align 8
  %14 = call noundef nonnull align 8 dereferenceable(24) ptr @_ZNSt6vectorIS_IN5zxing6qrcode19FinderPatternFinder23HorizontalCheckedResultESaIS3_EESaIS5_EEixEm(ptr noundef nonnull align 8 dereferenceable(24) %12, i64 noundef %13) #12
  %15 = call noundef i64 @_ZNKSt6vectorIN5zxing6qrcode19FinderPatternFinder23HorizontalCheckedResultESaIS3_EE4sizeEv(ptr noundef nonnull align 8 dereferenceable(24) %14) #12
  %16 = icmp ult i64 %11, %15
  br i1 %16, label %17, label %39

17:                                               ; preds = %10
  %18 = getelementptr inbounds %"class.zxing::qrcode::FinderPatternFinder", ptr %9, i32 0, i32 3
  %19 = load i64, ptr %6, align 8
  %20 = call noundef nonnull align 8 dereferenceable(24) ptr @_ZNSt6vectorIS_IN5zxing6qrcode19FinderPatternFinder23HorizontalCheckedResultESaIS3_EESaIS5_EEixEm(ptr noundef nonnull align 8 dereferenceable(24) %18, i64 noundef %19) #12
  %21 = load i64, ptr %8, align 8
  %22 = call noundef nonnull align 8 dereferenceable(16) ptr @_ZNSt6vectorIN5zxing6qrcode19FinderPatternFinder23HorizontalCheckedResultESaIS3_EEixEm(ptr noundef nonnull align 8 dereferenceable(24) %20, i64 noundef %21) #12
  %23 = getelementptr inbounds %"struct.zxing::qrcode::FinderPatternFinder::HorizontalCheckedResult", ptr %22, i32 0, i32 0
  %24 = load i64, ptr %23, align 8
  %25 = load i64, ptr %7, align 8
  %26 = icmp eq i64 %24, %25
  br i1 %26, label %27, label %35

27:                                               ; preds = %17
  %28 = getelementptr inbounds %"class.zxing::qrcode::FinderPatternFinder", ptr %9, i32 0, i32 3
  %29 = load i64, ptr %6, align 8
  %30 = call noundef nonnull align 8 dereferenceable(24) ptr @_ZNSt6vectorIS_IN5zxing6qrcode19FinderPatternFinder23HorizontalCheckedResultESaIS3_EESaIS5_EEixEm(ptr noundef nonnull align 8 dereferenceable(24) %28, i64 noundef %29) #12
  %31 = load i64, ptr %8, align 8
  %32 = call noundef nonnull align 8 dereferenceable(16) ptr @_ZNSt6vectorIN5zxing6qrcode19FinderPatternFinder23HorizontalCheckedResultESaIS3_EEixEm(ptr noundef nonnull align 8 dereferenceable(24) %30, i64 noundef %31) #12
  %33 = getelementptr inbounds %"struct.zxing::qrcode::FinderPatternFinder::HorizontalCheckedResult", ptr %32, i32 0, i32 1
  %34 = load float, ptr %33, align 8
  store float %34, ptr %4, align 4
  br label %40

35:                                               ; preds = %17
  br label %36

36:                                               ; preds = %35
  %37 = load i64, ptr %8, align 8
  %38 = add i64 %37, 1
  store i64 %38, ptr %8, align 8
  br label %10, !llvm.loop !60

39:                                               ; preds = %10
  store float -1.000000e+00, ptr %4, align 4
  br label %40

40:                                               ; preds = %39, %27
  %41 = load float, ptr %4, align 4
  ret float %41
}