; Function Attrs: mustprogress nofree norecurse nosync nounwind willreturn memory(read, inaccessiblemem: none) uwtable
define hidden noundef float @_ZN5zxing6qrcode19FinderPatternFinder26hasHorizontalCheckedResultEmm(ptr nocapture noundef nonnull readonly align 8 dereferenceable(88) %0, i64 noundef %1, i64 noundef %2) local_unnamed_addr #10 align 2 {
  %4 = getelementptr inbounds i8, ptr %0, i64 16
  %5 = load ptr, ptr %4, align 8
  %6 = getelementptr inbounds %"class.std::vector.52", ptr %5, i64 %1
  %7 = getelementptr inbounds i8, ptr %6, i64 8
  %8 = load ptr, ptr %7, align 8
  %9 = load ptr, ptr %6, align 8
  %.not = icmp eq ptr %8, %9
  br i1 %.not, label %.loopexit, label %.lr.ph.preheader

.lr.ph.preheader:                                 ; preds = %3
  %10 = ptrtoint ptr %8 to i64
  %11 = ptrtoint ptr %9 to i64
  %12 = sub i64 %10, %11
  %13 = ashr exact i64 %12, 4
  %umax = tail call i64 @llvm.umax.i64(i64 %13, i64 1)
  br label %.lr.ph

14:                                               ; preds = %.lr.ph
  %15 = add nuw i64 %.010, 1
  %exitcond.not = icmp eq i64 %15, %umax
  br i1 %exitcond.not, label %.loopexit, label %.lr.ph, !llvm.loop !14

.lr.ph:                                           ; preds = %.lr.ph.preheader, %14
  %.010 = phi i64 [ %15, %14 ], [ 0, %.lr.ph.preheader ]
  %16 = getelementptr inbounds %"struct.zxing::qrcode::FinderPatternFinder::HorizontalCheckedResult", ptr %9, i64 %.010
  %17 = load i64, ptr %16, align 8
  %18 = icmp eq i64 %17, %2
  br i1 %18, label %19, label %14

19:                                               ; preds = %.lr.ph
  %20 = getelementptr inbounds i8, ptr %16, i64 8
  %21 = load float, ptr %20, align 8
  br label %.loopexit

.loopexit:                                        ; preds = %14, %3, %19
  %.09 = phi float [ %21, %19 ], [ -1.000000e+00, %3 ], [ -1.000000e+00, %14 ]
  ret float %.09
}